; Function Attrs: mustprogress nounwind uwtable
define void @_ZN5arrow8internal7CpuInfoD2Ev(ptr noundef nonnull align 8 captures(none) dereferenceable(8) %0) unnamed_addr #0 align 2 personality ptr @__gxx_personality_v0 {
  %2 = load ptr, ptr %0, align 8, !tbaa !3
  %.not.i = icmp eq ptr %2, null
  br i1 %.not.i, label %_ZNSt10unique_ptrIN5arrow8internal7CpuInfo4ImplESt14default_deleteIS3_EED2Ev.exit, label %3

3:                                                ; preds = %1
  %4 = getelementptr inbounds nuw i8, ptr %2, i64 32
  %5 = load ptr, ptr %4, align 8, !tbaa !8
  %6 = getelementptr inbounds nuw i8, ptr %2, i64 48
  %7 = icmp eq ptr %5, %6
  br i1 %7, label %_ZNKSt7__cxx1112basic_stringIcSt11char_traitsIcESaIcEE11_M_is_localEv.exit.thread.i.i.i.i.i, label %_ZNKSt7__cxx1112basic_stringIcSt11char_traitsIcESaIcEE11_M_is_localEv.exit.i.i.i.i.i

_ZNKSt7__cxx1112basic_stringIcSt11char_traitsIcESaIcEE11_M_is_localEv.exit.thread.i.i.i.i.i: ; preds = %3
  %8 = getelementptr inbounds nuw i8, ptr %2, i64 40
  %9 = load i64, ptr %8, align 8, !tbaa !13
  %10 = icmp ult i64 %9, 16
  tail call void @llvm.assume(i1 %10)
  br label %_ZNKSt14default_deleteIN5arrow8internal7CpuInfo4ImplEEclEPS3_.exit.i

_ZNKSt7__cxx1112basic_stringIcSt11char_traitsIcESaIcEE11_M_is_localEv.exit.i.i.i.i.i: ; preds = %3
  %11 = load i64, ptr %6, align 8, !tbaa !14
  %12 = add i64 %11, 1
  tail call void @_ZdlPvm(ptr noundef %5, i64 noundef %12) #21
  br label %_ZNKSt14default_deleteIN5arrow8internal7CpuInfo4ImplEEclEPS3_.exit.i

_ZNKSt14default_deleteIN5arrow8internal7CpuInfo4ImplEEclEPS3_.exit.i: ; preds = %_ZNKSt7__cxx1112basic_stringIcSt11char_traitsIcESaIcEE11_M_is_localEv.exit.i.i.i.i.i, %_ZNKSt7__cxx1112basic_stringIcSt11char_traitsIcESaIcEE11_M_is_localEv.exit.thread.i.i.i.i.i
  tail call void @_ZdlPvm(ptr noundef nonnull %2, i64 noundef 88) #21
  br label %_ZNSt10unique_ptrIN5arrow8internal7CpuInfo4ImplESt14default_deleteIS3_EED2Ev.exit

_ZNSt10unique_ptrIN5arrow8internal7CpuInfo4ImplESt14default_deleteIS3_EED2Ev.exit: ; preds = %1, %_ZNKSt14default_deleteIN5arrow8internal7CpuInfo4ImplEEclEPS3_.exit.i
  store ptr null, ptr %0, align 8, !tbaa !3
  ret void
}